; Function Attrs: nounwind uwtable
define ptr @l_Array_forIn_x27Unsafe_loop___at_Lean_Elab_Tactic_Conv_evalExt___spec__1___boxed(ptr noundef %0, ptr noundef %1, ptr noundef %2, ptr noundef %3, ptr noundef %4, ptr noundef %5, ptr noundef %6, ptr noundef %7, ptr noundef %8, ptr noundef %9, ptr noundef %10, ptr noundef %11, ptr noundef %12, ptr noundef %13, ptr noundef %14) local_unnamed_addr #1 {
  %16 = getelementptr i8, ptr %3, i64 8
  %.val54 = load i64, ptr %16, align 8, !tbaa !13
  %17 = ptrtoint ptr %3 to i64
  %18 = and i64 %17, 1
  %.not = icmp eq i64 %18, 0
  br i1 %.not, label %19, label %lean_dec.exit35

19:                                               ; preds = %15
  %20 = load i32, ptr %3, align 4, !tbaa !6
  %21 = icmp sgt i32 %20, 1
  br i1 %21, label %22, label %24, !prof !5

22:                                               ; preds = %19
  %23 = add nsw i32 %20, -1
  store i32 %23, ptr %3, align 4, !tbaa !6
  br label %lean_dec.exit35

24:                                               ; preds = %19
  %.not.i = icmp eq i32 %20, 0
  br i1 %.not.i, label %lean_dec.exit35, label %25

25:                                               ; preds = %24
  tail call void @lean_dec_ref_cold(ptr noundef nonnull %3) #4
  br label %lean_dec.exit35

lean_dec.exit35:                                  ; preds = %25, %24, %22, %15
  %26 = getelementptr i8, ptr %4, i64 8
  %.val = load i64, ptr %26, align 8, !tbaa !13
  %27 = ptrtoint ptr %4 to i64
  %28 = and i64 %27, 1
  %.not55 = icmp eq i64 %28, 0
  br i1 %.not55, label %29, label %lean_dec.exit34

29:                                               ; preds = %lean_dec.exit35
  %30 = load i32, ptr %4, align 4, !tbaa !6
  %31 = icmp sgt i32 %30, 1
  br i1 %31, label %32, label %34, !prof !5

32:                                               ; preds = %29
  %33 = add nsw i32 %30, -1
  store i32 %33, ptr %4, align 4, !tbaa !6
  br label %lean_dec.exit34

34:                                               ; preds = %29
  %.not.i36 = icmp eq i32 %30, 0
  br i1 %.not.i36, label %lean_dec.exit34, label %35

35:                                               ; preds = %34
  tail call void @lean_dec_ref_cold(ptr noundef nonnull %4) #4
  br label %lean_dec.exit34

lean_dec.exit34:                                  ; preds = %35, %34, %32, %lean_dec.exit35
  %36 = tail call ptr @l_Array_forIn_x27Unsafe_loop___at_Lean_Elab_Tactic_Conv_evalExt___spec__1(ptr poison, ptr poison, ptr noundef %2, i64 noundef %.val54, i64 noundef %.val, ptr noundef %5, ptr noundef %6, ptr noundef %7, ptr noundef %8, ptr noundef %9, ptr noundef %10, ptr noundef %11, ptr noundef %12, ptr noundef %13, ptr noundef %14)
  %37 = ptrtoint ptr %12 to i64
  %38 = and i64 %37, 1
  %.not56 = icmp eq i64 %38, 0
  br i1 %.not56, label %39, label %lean_dec.exit33

39:                                               ; preds = %lean_dec.exit34
  %40 = load i32, ptr %12, align 4, !tbaa !6
  %41 = icmp sgt i32 %40, 1
  br i1 %41, label %42, label %44, !prof !5

42:                                               ; preds = %39
  %43 = add nsw i32 %40, -1
  store i32 %43, ptr %12, align 4, !tbaa !6
  br label %lean_dec.exit33

44:                                               ; preds = %39
  %.not.i38 = icmp eq i32 %40, 0
  br i1 %.not.i38, label %lean_dec.exit33, label %45

45:                                               ; preds = %44
  tail call void @lean_dec_ref_cold(ptr noundef nonnull %12) #4
  br label %lean_dec.exit33

lean_dec.exit33:                                  ; preds = %45, %44, %42, %lean_dec.exit34
  %46 = ptrtoint ptr %9 to i64
  %47 = and i64 %46, 1
  %.not57 = icmp eq i64 %47, 0
  br i1 %.not57, label %48, label %lean_dec.exit32

48:                                               ; preds = %lean_dec.exit33
  %49 = load i32, ptr %9, align 4, !tbaa !6
  %50 = icmp sgt i32 %49, 1
  br i1 %50, label %51, label %53, !prof !5

51:                                               ; preds = %48
  %52 = add nsw i32 %49, -1
  store i32 %52, ptr %9, align 4, !tbaa !6
  br label %lean_dec.exit32

53:                                               ; preds = %48
  %.not.i40 = icmp eq i32 %49, 0
  br i1 %.not.i40, label %lean_dec.exit32, label %54

54:                                               ; preds = %53
  tail call void @lean_dec_ref_cold(ptr noundef nonnull %9) #4
  br label %lean_dec.exit32

lean_dec.exit32:                                  ; preds = %54, %53, %51, %lean_dec.exit33
  %55 = ptrtoint ptr %8 to i64
  %56 = and i64 %55, 1
  %.not58 = icmp eq i64 %56, 0
  br i1 %.not58, label %57, label %lean_dec.exit31

57:                                               ; preds = %lean_dec.exit32
  %58 = load i32, ptr %8, align 4, !tbaa !6
  %59 = icmp sgt i32 %58, 1
  br i1 %59, label %60, label %62, !prof !5

60:                                               ; preds = %57
  %61 = add nsw i32 %58, -1
  store i32 %61, ptr %8, align 4, !tbaa !6
  br label %lean_dec.exit31

62:                                               ; preds = %57
  %.not.i42 = icmp eq i32 %58, 0
  br i1 %.not.i42, label %lean_dec.exit31, label %63

63:                                               ; preds = %62
  tail call void @lean_dec_ref_cold(ptr noundef nonnull %8) #4
  br label %lean_dec.exit31

lean_dec.exit31:                                  ; preds = %63, %62, %60, %lean_dec.exit32
  %64 = ptrtoint ptr %7 to i64
  %65 = and i64 %64, 1
  %.not59 = icmp eq i64 %65, 0
  br i1 %.not59, label %66, label %lean_dec.exit30

66:                                               ; preds = %lean_dec.exit31
  %67 = load i32, ptr %7, align 4, !tbaa !6
  %68 = icmp sgt i32 %67, 1
  br i1 %68, label %69, label %71, !prof !5

69:                                               ; preds = %66
  %70 = add nsw i32 %67, -1
  store i32 %70, ptr %7, align 4, !tbaa !6
  br label %lean_dec.exit30

71:                                               ; preds = %66
  %.not.i44 = icmp eq i32 %67, 0
  br i1 %.not.i44, label %lean_dec.exit30, label %72

72:                                               ; preds = %71
  tail call void @lean_dec_ref_cold(ptr noundef nonnull %7) #4
  br label %lean_dec.exit30

lean_dec.exit30:                                  ; preds = %72, %71, %69, %lean_dec.exit31
  %73 = ptrtoint ptr %6 to i64
  %74 = and i64 %73, 1
  %.not60 = icmp eq i64 %74, 0
  br i1 %.not60, label %75, label %lean_dec.exit29

75:                                               ; preds = %lean_dec.exit30
  %76 = load i32, ptr %6, align 4, !tbaa !6
  %77 = icmp sgt i32 %76, 1
  br i1 %77, label %78, label %80, !prof !5

78:                                               ; preds = %75
  %79 = add nsw i32 %76, -1
  store i32 %79, ptr %6, align 4, !tbaa !6
  br label %lean_dec.exit29

80:                                               ; preds = %75
  %.not.i46 = icmp eq i32 %76, 0
  br i1 %.not.i46, label %lean_dec.exit29, label %81

81:                                               ; preds = %80
  tail call void @lean_dec_ref_cold(ptr noundef nonnull %6) #4
  br label %lean_dec.exit29

lean_dec.exit29:                                  ; preds = %81, %80, %78, %lean_dec.exit30
  %82 = ptrtoint ptr %2 to i64
  %83 = and i64 %82, 1
  %.not61 = icmp eq i64 %83, 0
  br i1 %.not61, label %84, label %lean_dec.exit28

84:                                               ; preds = %lean_dec.exit29
  %85 = load i32, ptr %2, align 4, !tbaa !6
  %86 = icmp sgt i32 %85, 1
  br i1 %86, label %87, label %89, !prof !5

87:                                               ; preds = %84
  %88 = add nsw i32 %85, -1
  store i32 %88, ptr %2, align 4, !tbaa !6
  br label %lean_dec.exit28

89:                                               ; preds = %84
  %.not.i48 = icmp eq i32 %85, 0
  br i1 %.not.i48, label %lean_dec.exit28, label %90

90:                                               ; preds = %89
  tail call void @lean_dec_ref_cold(ptr noundef nonnull %2) #4
  br label %lean_dec.exit28

lean_dec.exit28:                                  ; preds = %90, %89, %87, %lean_dec.exit29
  %91 = ptrtoint ptr %1 to i64
  %92 = and i64 %91, 1
  %.not62 = icmp eq i64 %92, 0
  br i1 %.not62, label %93, label %lean_dec.exit27

93:                                               ; preds = %lean_dec.exit28
  %94 = load i32, ptr %1, align 4, !tbaa !6
  %95 = icmp sgt i32 %94, 1
  br i1 %95, label %96, label %98, !prof !5

96:                                               ; preds = %93
  %97 = add nsw i32 %94, -1
  store i32 %97, ptr %1, align 4, !tbaa !6
  br label %lean_dec.exit27

98:                                               ; preds = %93
  %.not.i50 = icmp eq i32 %94, 0
  br i1 %.not.i50, label %lean_dec.exit27, label %99

99:                                               ; preds = %98
  tail call void @lean_dec_ref_cold(ptr noundef nonnull %1) #4
  br label %lean_dec.exit27

lean_dec.exit27:                                  ; preds = %99, %98, %96, %lean_dec.exit28
  %100 = ptrtoint ptr %0 to i64
  %101 = and i64 %100, 1
  %.not63 = icmp eq i64 %101, 0
  br i1 %.not63, label %102, label %lean_dec.exit

102:                                              ; preds = %lean_dec.exit27
  %103 = load i32, ptr %0, align 4, !tbaa !6
  %104 = icmp sgt i32 %103, 1
  br i1 %104, label %105, label %107, !prof !5

105:                                              ; preds = %102
  %106 = add nsw i32 %103, -1
  store i32 %106, ptr %0, align 4, !tbaa !6
  br label %lean_dec.exit

107:                                              ; preds = %102
  %.not.i52 = icmp eq i32 %103, 0
  br i1 %.not.i52, label %lean_dec.exit, label %108

108:                                              ; preds = %107
  tail call void @lean_dec_ref_cold(ptr noundef nonnull %0) #4
  br label %lean_dec.exit

lean_dec.exit:                                    ; preds = %108, %107, %105, %lean_dec.exit27
  ret ptr %36
}